; Function Attrs: nounwind uwtable
define internal void @writetup_index(ptr noundef readonly captures(none) %0, ptr noundef %1, ptr noundef readonly captures(none) %2) #0 {
  %4 = alloca i32, align 4
  %5 = load ptr, ptr %2, align 8
  call void @llvm.lifetime.start.p0(i64 4, ptr nonnull %4) #12
  %6 = getelementptr i8, ptr %5, i64 6
  %.val = load i16, ptr %6, align 2
  %7 = and i16 %.val, 8191
  %narrow = add nuw nsw i16 %7, 4
  %8 = zext nneg i16 %narrow to i32
  store i32 %8, ptr %4, align 4
  call void @LogicalTapeWrite(ptr noundef %1, ptr noundef nonnull %4, i64 noundef 4) #12
  %.val9 = load i16, ptr %6, align 2
  %9 = and i16 %.val9, 8191
  %10 = zext nneg i16 %9 to i64
  call void @LogicalTapeWrite(ptr noundef %1, ptr noundef %5, i64 noundef %10) #12
  %11 = getelementptr inbounds nuw i8, ptr %0, i64 96
  %12 = load i32, ptr %11, align 8
  %13 = and i32 %12, 1
  %.not = icmp eq i32 %13, 0
  br i1 %.not, label %15, label %14

14:                                               ; preds = %3
  call void @LogicalTapeWrite(ptr noundef %1, ptr noundef nonnull %4, i64 noundef 4) #12
  br label %15

15:                                               ; preds = %14, %3
  call void @llvm.lifetime.end.p0(i64 4, ptr nonnull %4) #12
  ret void
}